target datalayout = "e-m:e-p270:32:32-p271:32:32-p272:64:64-i64:64-i128:128-f80:128-n8:16:32:64-S128"
target triple = "x86_64-pc-linux-gnu"

%class.QPointer = type { %class.QWeakPointer }
%class.QWeakPointer = type { ptr, ptr }
%class.QString = type { %struct.QArrayDataPointer }
%struct.QArrayDataPointer = type { ptr, ptr, i64 }
%class.QVariant = type { %"struct.QVariant::Private" }
%"struct.QVariant::Private" = type { %union.anon, i64 }
%union.anon = type { ptr, [16 x i8] }
%class.QSharedPointer = type { ptr, ptr }
%class.IOGraphDialog = type { %class.WiresharkDialog.base, ptr, ptr, %class.QPointer, ptr, %class.QList.5, %class.QString, ptr, ptr, i32, %struct.nstime_t, i8, ptr, %class.QPoint, %class.QMenu, ptr, i8, i8, i8, i8, i32, %class.QSharedPointer, %class.QSharedPointer.9 }
%class.WiresharkDialog.base = type <{ %class.GeometryStateDialog, ptr, i8, [7 x i8], %class.QString, %class.QList.1, i32, i8 }>
%class.GeometryStateDialog = type { %class.QDialog, %class.QString, ptr }
%class.QDialog = type { %class.QWidget }
%class.QWidget = type { %class.QObject, %class.QPaintDevice.base, ptr }
%class.QObject = type { ptr, %class.QScopedPointer }
%class.QScopedPointer = type { ptr }
%class.QPaintDevice.base = type <{ ptr, i16 }>
%class.QList.1 = type { %struct.QArrayDataPointer.4 }
%struct.QArrayDataPointer.4 = type { ptr, ptr, i64 }
%class.QList.5 = type { %struct.QArrayDataPointer.8 }
%struct.QArrayDataPointer.8 = type { ptr, ptr, i64 }
%struct.nstime_t = type { i64, i32 }
%class.QPoint = type { i32, i32 }
%class.QMenu = type { %class.QWidget }
%class.QSharedPointer.9 = type { ptr, ptr }
%class.Ui_IOGraphDialog = type { ptr, ptr, ptr, ptr, ptr, ptr, ptr, ptr, ptr, ptr, ptr, ptr, ptr, ptr, ptr, ptr, ptr, ptr, ptr, ptr, ptr, ptr, ptr, ptr, ptr, ptr, ptr, ptr, ptr, ptr, ptr, ptr, ptr, ptr, ptr, ptr, ptr, ptr, ptr, ptr, ptr, ptr, ptr, ptr, ptr, ptr }
%class.QBrush = type { %"class.std::unique_ptr" }
%"class.std::unique_ptr" = type { %"struct.std::__uniq_ptr_data" }
%"struct.std::__uniq_ptr_data" = type { %"class.std::__uniq_ptr_impl" }
%"class.std::__uniq_ptr_impl" = type { %"class.std::tuple" }
%"class.std::tuple" = type { %"struct.std::_Tuple_impl" }
%"struct.std::_Tuple_impl" = type { %"struct.std::_Head_base.28" }
%"struct.std::_Head_base.28" = type { ptr }
%class.QPointer.34 = type { %class.QWeakPointer }
%class.WiresharkDialog = type <{ %class.GeometryStateDialog, ptr, i8, [7 x i8], %class.QString, %class.QList.1, i32, i8, [3 x i8] }>
%class.QPen = type { ptr }
%struct._packet_info = type { ptr, ptr, i32, i32, %struct.nstime_t, %struct.nstime_t, %struct.nstime_t, i8, ptr, ptr, ptr, ptr, %struct._address, %struct._address, %struct._address, %struct._address, %struct._address, %struct._address, i32, ptr, i8, [3 x i8], %struct.anon.155, i32, i32, i32, i32, ptr, i8, ptr, ptr, i16, i16, i32, i32, i16, i32, i32, ptr, ptr, ptr, i8, i8, i16, i16, i16, i32, i16, i16, ptr, ptr, ptr, ptr, ptr, i32, i32 }
%struct._address = type { i32, i32, ptr, ptr }
%struct.anon.155 = type { i8, [3 x i8] }
%class.QCPItemTracer = type <{ %class.QCPAbstractItem.base, [6 x i8], ptr, %class.QPen, %class.QPen, %class.QBrush, %class.QBrush, double, i32, [4 x i8], ptr, double, i8, [7 x i8] }>
%class.QCPAbstractItem.base = type <{ %class.QCPLayerable.base, i8, [6 x i8], %class.QPointer.54, %class.QList.55, %class.QList.59, i8, i8 }>
%class.QCPLayerable.base = type <{ %class.QObject, i8, [7 x i8], ptr, %class.QPointer.34, ptr, i8 }>
%class.QPointer.54 = type { %class.QWeakPointer }
%class.QList.55 = type { %struct.QArrayDataPointer.58 }
%struct.QArrayDataPointer.58 = type { ptr, ptr, i64 }
%class.QList.59 = type { %struct.QArrayDataPointer.62 }
%struct.QArrayDataPointer.62 = type { ptr, ptr, i64 }
%class.QList.75 = type { %struct.QArrayDataPointer.78 }
%struct.QArrayDataPointer.78 = type { ptr, ptr, i64 }

; Function Attrs: mustprogress nounwind null_pointer_is_valid sspstrong uwtable
define linkonce_odr noundef ptr @_ZNK17QArrayDataPointerIiEptEv(ptr noundef align 8 dereferenceable_or_null(24) %0) #7 comdat align 2 {
  %2 = alloca ptr, align 8
  store ptr %0, ptr %2, align 8
  %3 = load ptr, ptr %2, align 8
  ret ptr %3
}

; Function Attrs: mustprogress nounwind null_pointer_is_valid sspstrong uwtable
define linkonce_odr noundef i64 @_ZNK5QListIiE4sizeEv(ptr noundef align 8 dereferenceable_or_null(24) %0) #7 comdat align 2 {
  %2 = alloca ptr, align 8
  store ptr %0, ptr %2, align 8
  %3 = load ptr, ptr %2, align 8
  %4 = getelementptr inbounds nuw %class.QList.75, ptr %3, i32 0, i32 0
  %5 = call noundef ptr @_ZNK17QArrayDataPointerIiEptEv(ptr noundef align 8 dereferenceable_or_null(24) %4) #2
  %6 = getelementptr inbounds nuw %struct.QArrayDataPointer.78, ptr %5, i32 0, i32 2
  %7 = load i64, ptr %6, align 8
  ret i64 %7
}

; Function Attrs: mustprogress nounwind null_pointer_is_valid sspstrong uwtable
define linkonce_odr noundef ptr @_ZNK13QCPItemTracer5graphEv(ptr noundef align 8 dereferenceable_or_null(209) %0) #7 comdat align 2 {
  %2 = alloca ptr, align 8
  store ptr %0, ptr %2, align 8
  %3 = load ptr, ptr %2, align 8
  %4 = getelementptr inbounds nuw %class.QCPItemTracer, ptr %3, i32 0, i32 10
  %5 = load ptr, ptr %4, align 8
  ret ptr %5
}

; Function Attrs: mustprogress nounwind null_pointer_is_valid sspstrong uwtable
define linkonce_odr noundef i64 @_ZNK5QListIiE5countEv(ptr noundef align 8 dereferenceable_or_null(24) %0) #7 comdat align 2 {
  %2 = alloca ptr, align 8
  store ptr %0, ptr %2, align 8
  %3 = load ptr, ptr %2, align 8
  %4 = call noundef i64 @_ZNK5QListIiE4sizeEv(ptr noundef align 8 dereferenceable_or_null(24) %3) #2
  ret i64 %4
}

; Function Attrs: mustprogress null_pointer_is_valid sspstrong uwtable
define void @_ZN13IOGraphDialog20selectedFrameChangedE5QListIiE(ptr noundef align 8 dereferenceable_or_null(384) %0, ptr noundef %1) #3 align 2 personality ptr @__gxx_personality_v0 {
  %3 = alloca ptr, align 8
  %4 = alloca ptr, align 8
  %5 = alloca ptr, align 8
  %6 = alloca i32, align 4
  %7 = alloca %class.QVariant, align 8
  %8 = alloca ptr, align 8
  %9 = alloca i32, align 4
  %10 = alloca double, align 8
  store ptr %0, ptr %3, align 8
  store ptr %1, ptr %4, align 8
  %11 = load ptr, ptr %3, align 8
  %12 = call noundef i64 @_ZNK5QListIiE5countEv(ptr noundef align 8 dereferenceable_or_null(24) %1) #2
  %13 = icmp eq i64 %12, 1
  br i1 %13, label %14, label %76

14:                                               ; preds = %2
  %15 = getelementptr inbounds nuw %class.WiresharkDialog, ptr %11, i32 0, i32 1
  %16 = load ptr, ptr %15, align 8
  %17 = call noundef zeroext i1 @_ZNK11CaptureFile7isValidEv(ptr noundef align 8 dereferenceable_or_null(48) %16)
  br i1 %17, label %18, label %76

18:                                               ; preds = %14
  %19 = getelementptr inbounds nuw %class.WiresharkDialog, ptr %11, i32 0, i32 2
  %20 = load i8, ptr %19, align 8, !range !6, !noundef !7
  %21 = trunc i8 %20 to i1
  br i1 %21, label %76, label %22

22:                                               ; preds = %18
  %23 = getelementptr inbounds nuw %class.IOGraphDialog, ptr %11, i32 0, i32 8
  %24 = load ptr, ptr %23, align 8
  %25 = call noundef ptr @_ZNK13QCPItemTracer5graphEv(ptr noundef align 8 dereferenceable_or_null(209) %24)
  %26 = icmp ne ptr %25, null
  br i1 %26, label %27, label %76

27:                                               ; preds = %22
  %28 = getelementptr inbounds nuw %class.WiresharkDialog, ptr %11, i32 0, i32 1
  %29 = load ptr, ptr %28, align 8
  %30 = call noundef ptr @_ZN11CaptureFile10packetInfoEv(ptr noundef align 8 dereferenceable_or_null(48) %29)
  %31 = icmp ne ptr %30, null
  br i1 %31, label %32, label %76

32:                                               ; preds = %27
  call void @llvm.lifetime.start.p0(i64 8, ptr %5) #2
  %33 = getelementptr inbounds nuw %class.WiresharkDialog, ptr %11, i32 0, i32 1
  %34 = load ptr, ptr %33, align 8
  %35 = call noundef ptr @_ZN11CaptureFile10packetInfoEv(ptr noundef align 8 dereferenceable_or_null(48) %34)
  store ptr %35, ptr %5, align 8
  %36 = load ptr, ptr %5, align 8
  %37 = getelementptr inbounds nuw %struct._packet_info, ptr %36, i32 0, i32 3
  %38 = load i32, ptr %37, align 4
  %39 = getelementptr inbounds nuw %class.IOGraphDialog, ptr %11, i32 0, i32 9
  %40 = load i32, ptr %39, align 8
  %41 = icmp ne i32 %38, %40
  br i1 %41, label %42, label %75

42:                                               ; preds = %32
  call void @llvm.lifetime.start.p0(i64 4, ptr %6) #2
  call void @llvm.lifetime.start.p0(i64 32, ptr %7) #2
  %43 = getelementptr inbounds nuw %class.IOGraphDialog, ptr %11, i32 0, i32 1
  %44 = load ptr, ptr %43, align 8
  %45 = getelementptr inbounds nuw %class.Ui_IOGraphDialog, ptr %44, i32 0, i32 42
  %46 = load ptr, ptr %45, align 8
  %47 = getelementptr inbounds nuw %class.IOGraphDialog, ptr %11, i32 0, i32 1
  %48 = load ptr, ptr %47, align 8
  %49 = getelementptr inbounds nuw %class.Ui_IOGraphDialog, ptr %48, i32 0, i32 42
  %50 = load ptr, ptr %49, align 8
  %51 = call noundef i32 @_ZNK9QComboBox12currentIndexEv(ptr noundef align 8 dereferenceable_or_null(40) %50)
  call void @_ZNK9QComboBox8itemDataEii(ptr dead_on_unwind writable sret(%class.QVariant) align 8 %7, ptr noundef align 8 dereferenceable_or_null(40) %46, i32 noundef %51, i32 noundef 256)
  %52 = invoke noundef i32 @_ZNK8QVariant5toIntEPb(ptr noundef align 8 dereferenceable_or_null(32) %7, ptr noundef null)
          to label %53 unwind label %71

53:                                               ; preds = %42
  call void @_ZN8QVariantD1Ev(ptr noundef align 8 dereferenceable_or_null(32) %7) #2
  call void @llvm.lifetime.end.p0(i64 32, ptr %7) #2
  store i32 %52, ptr %6, align 4
  call void @llvm.lifetime.start.p0(i64 8, ptr %10) #2
  %54 = load ptr, ptr %5, align 8
  %55 = getelementptr inbounds nuw %struct._packet_info, ptr %54, i32 0, i32 5
  %56 = call double @nstime_to_sec(ptr noundef %55)
  %57 = load i32, ptr %6, align 4
  %58 = sitofp i32 %57 to double
  %59 = fdiv double %58, 2.000000e+06
  %60 = fsub double %56, %59
  %61 = getelementptr inbounds nuw %class.IOGraphDialog, ptr %11, i32 0, i32 10
  %62 = call double @nstime_to_sec(ptr noundef %61)
  %63 = fadd double %60, %62
  store double %63, ptr %10, align 8
  %64 = getelementptr inbounds nuw %class.IOGraphDialog, ptr %11, i32 0, i32 8
  %65 = load ptr, ptr %64, align 8
  %66 = load double, ptr %10, align 8
  call void @_ZN13QCPItemTracer11setGraphKeyEd(ptr noundef align 8 dereferenceable_or_null(209) %65, double noundef %66)
  %67 = getelementptr inbounds nuw %class.IOGraphDialog, ptr %11, i32 0, i32 1
  %68 = load ptr, ptr %67, align 8
  %69 = getelementptr inbounds nuw %class.Ui_IOGraphDialog, ptr %68, i32 0, i32 26
  %70 = load ptr, ptr %69, align 8
  call void @_ZN11QCustomPlot6replotENS_15RefreshPriorityE(ptr noundef align 8 dereferenceable_or_null(513) %70, i32 noundef 2)
  call void @_ZN13IOGraphDialog10updateHintEv(ptr noundef align 8 dereferenceable_or_null(384) %11)
  call void @llvm.lifetime.end.p0(i64 8, ptr %10) #2
  call void @llvm.lifetime.end.p0(i64 4, ptr %6) #2
  br label %75

71:                                               ; preds = %42
  %72 = landingpad { ptr, i32 }
          cleanup
  %73 = extractvalue { ptr, i32 } %72, 0
  store ptr %73, ptr %8, align 8
  %74 = extractvalue { ptr, i32 } %72, 1
  store i32 %74, ptr %9, align 4
  call void @_ZN8QVariantD1Ev(ptr noundef align 8 dereferenceable_or_null(32) %7) #2
  call void @llvm.lifetime.end.p0(i64 32, ptr %7) #2
  call void @llvm.lifetime.end.p0(i64 4, ptr %6) #2
  call void @llvm.lifetime.end.p0(i64 8, ptr %5) #2
  br label %77

75:                                               ; preds = %53, %32
  call void @llvm.lifetime.end.p0(i64 8, ptr %5) #2
  br label %76

76:                                               ; preds = %75, %27, %22, %18, %14, %2
  ret void

77:                                               ; preds = %71
  %78 = load ptr, ptr %8, align 8
  %79 = load i32, ptr %9, align 4
  %80 = insertvalue { ptr, i32 } poison, ptr %78, 0
  %81 = insertvalue { ptr, i32 } %80, i32 %79, 1
  resume { ptr, i32 } %81
}