; Function Attrs: mustprogress null_pointer_is_valid sspstrong uwtable
define void @_ZN13IOGraphDialog20selectedFrameChangedE5QListIiE(ptr noundef align 8 dereferenceable_or_null(384) %0, ptr noundef readonly captures(none) %1) #2 align 2 personality ptr @__gxx_personality_v0 {
  %3 = alloca %class.QVariant, align 8
  %4 = getelementptr inbounds nuw i8, ptr %1, i64 16
  %5 = load i64, ptr %4, align 8
  %6 = icmp eq i64 %5, 1
  br i1 %6, label %7, label %52

7:                                                ; preds = %2
  %8 = getelementptr inbounds nuw i8, ptr %0, i64 72
  %9 = load ptr, ptr %8, align 8
  %10 = tail call noundef zeroext i1 @_ZNK11CaptureFile7isValidEv(ptr noundef align 8 dereferenceable_or_null(48) %9)
  br i1 %10, label %11, label %52

11:                                               ; preds = %7
  %12 = getelementptr inbounds nuw i8, ptr %0, i64 80
  %13 = load i8, ptr %12, align 8, !range !12, !noundef !13
  %14 = trunc nuw i8 %13 to i1
  br i1 %14, label %52, label %15

15:                                               ; preds = %11
  %16 = getelementptr inbounds nuw i8, ptr %0, i64 240
  %17 = load ptr, ptr %16, align 8
  %18 = getelementptr inbounds nuw i8, ptr %17, i64 192
  %19 = load ptr, ptr %18, align 8
  %.not = icmp eq ptr %19, null
  br i1 %.not, label %52, label %20

20:                                               ; preds = %15
  %21 = load ptr, ptr %8, align 8
  %22 = tail call noundef ptr @_ZN11CaptureFile10packetInfoEv(ptr noundef align 8 dereferenceable_or_null(48) %21)
  %.not6 = icmp eq ptr %22, null
  br i1 %.not6, label %52, label %23

23:                                               ; preds = %20
  %24 = load ptr, ptr %8, align 8
  %25 = tail call noundef ptr @_ZN11CaptureFile10packetInfoEv(ptr noundef align 8 dereferenceable_or_null(48) %24)
  %26 = getelementptr inbounds nuw i8, ptr %25, i64 20
  %27 = load i32, ptr %26, align 4
  %28 = getelementptr inbounds nuw i8, ptr %0, i64 248
  %29 = load i32, ptr %28, align 8
  %.not7 = icmp eq i32 %27, %29
  br i1 %.not7, label %52, label %30

30:                                               ; preds = %23
  call void @llvm.lifetime.start.p0(i64 32, ptr nonnull %3) #33
  %31 = getelementptr inbounds nuw i8, ptr %0, i64 144
  %32 = load ptr, ptr %31, align 8
  %33 = getelementptr inbounds nuw i8, ptr %32, i64 336
  %34 = load ptr, ptr %33, align 8
  %35 = tail call noundef i32 @_ZNK9QComboBox12currentIndexEv(ptr noundef align 8 dereferenceable_or_null(40) %34)
  call void @_ZNK9QComboBox8itemDataEii(ptr dead_on_unwind nonnull writable sret(%class.QVariant) align 8 %3, ptr noundef align 8 dereferenceable_or_null(40) %34, i32 noundef %35, i32 noundef 256)
  %36 = invoke noundef i32 @_ZNK8QVariant5toIntEPb(ptr noundef nonnull align 8 dereferenceable_or_null(32) %3, ptr noundef null)
          to label %37 unwind label %50

37:                                               ; preds = %30
  call void @_ZN8QVariantD1Ev(ptr noundef nonnull align 8 dereferenceable_or_null(32) %3) #33
  call void @llvm.lifetime.end.p0(i64 32, ptr nonnull %3) #33
  %38 = getelementptr inbounds nuw i8, ptr %25, i64 40
  %39 = call double @nstime_to_sec(ptr noundef nonnull %38)
  %40 = sitofp i32 %36 to double
  %41 = fdiv double %40, 2.000000e+06
  %42 = fsub double %39, %41
  %43 = getelementptr inbounds nuw i8, ptr %0, i64 256
  %44 = call double @nstime_to_sec(ptr noundef nonnull %43)
  %45 = fadd double %42, %44
  %46 = load ptr, ptr %16, align 8
  call void @_ZN13QCPItemTracer11setGraphKeyEd(ptr noundef align 8 dereferenceable_or_null(209) %46, double noundef %45)
  %47 = load ptr, ptr %31, align 8
  %48 = getelementptr inbounds nuw i8, ptr %47, i64 208
  %49 = load ptr, ptr %48, align 8
  call void @_ZN11QCustomPlot6replotENS_15RefreshPriorityE(ptr noundef align 8 dereferenceable_or_null(513) %49, i32 noundef 2)
  call void @_ZN13IOGraphDialog10updateHintEv(ptr noundef align 8 dereferenceable_or_null(384) %0)
  br label %52

50:                                               ; preds = %30
  %51 = landingpad { ptr, i32 }
          cleanup
  call void @_ZN8QVariantD1Ev(ptr noundef nonnull align 8 dereferenceable_or_null(32) %3) #33
  call void @llvm.lifetime.end.p0(i64 32, ptr nonnull %3) #33
  resume { ptr, i32 } %51

52:                                               ; preds = %23, %37, %20, %15, %11, %7, %2
  ret void
}